target datalayout = "e-m:e-p270:32:32-p271:32:32-p272:64:64-i64:64-i128:128-f80:128-n8:16:32:64-S128"
target triple = "x86_64-unknown-linux-gnu"

%struct.dtoa_alloc = type { i32, i32, ptr, [8 x ptr], [1 x double] }
%struct.Bigint = type { ptr, i32, i32, i32, i32, [1 x i32] }

; Function Attrs: nounwind uwtable
define internal void @Bfree(ptr noundef %dalloc, ptr noundef %v) #0 {
entry:
  %dalloc.addr = alloca ptr, align 8
  %v.addr = alloca ptr, align 8
  store ptr %dalloc, ptr %dalloc.addr, align 8
  store ptr %v, ptr %v.addr, align 8
  %0 = load ptr, ptr %v.addr, align 8
  %tobool = icmp ne ptr %0, null
  br i1 %tobool, label %if.then, label %if.end7

if.then:                                          ; preds = %entry
  %1 = load ptr, ptr %v.addr, align 8
  %k = getelementptr inbounds %struct.Bigint, ptr %1, i32 0, i32 1
  %2 = load i32, ptr %k, align 8
  %cmp = icmp sgt i32 %2, 7
  br i1 %cmp, label %if.then1, label %if.else

if.then1:                                         ; preds = %if.then
  %3 = load ptr, ptr %v.addr, align 8
  call void @free(ptr noundef %3) #9
  br label %if.end

if.else:                                          ; preds = %if.then
  %4 = load ptr, ptr %dalloc.addr, align 8
  %freelist = getelementptr inbounds %struct.dtoa_alloc, ptr %4, i32 0, i32 3
  %5 = load ptr, ptr %v.addr, align 8
  %k2 = getelementptr inbounds %struct.Bigint, ptr %5, i32 0, i32 1
  %6 = load i32, ptr %k2, align 8
  %idxprom = sext i32 %6 to i64
  %arrayidx = getelementptr inbounds [8 x ptr], ptr %freelist, i64 0, i64 %idxprom
  %7 = load ptr, ptr %arrayidx, align 8
  %8 = load ptr, ptr %v.addr, align 8
  %next = getelementptr inbounds %struct.Bigint, ptr %8, i32 0, i32 0
  store ptr %7, ptr %next, align 8
  %9 = load ptr, ptr %v.addr, align 8
  %10 = load ptr, ptr %dalloc.addr, align 8
  %freelist3 = getelementptr inbounds %struct.dtoa_alloc, ptr %10, i32 0, i32 3
  %11 = load ptr, ptr %v.addr, align 8
  %k4 = getelementptr inbounds %struct.Bigint, ptr %11, i32 0, i32 1
  %12 = load i32, ptr %k4, align 8
  %idxprom5 = sext i32 %12 to i64
  %arrayidx6 = getelementptr inbounds [8 x ptr], ptr %freelist3, i64 0, i64 %idxprom5
  store ptr %9, ptr %arrayidx6, align 8
  br label %if.end

if.end:                                           ; preds = %if.else, %if.then1
  br label %if.end7

if.end7:                                          ; preds = %if.end, %entry
  ret void
}

; Function Attrs: nounwind uwtable
define internal ptr @Balloc(ptr noundef %dalloc, i32 noundef %k) #0 {
entry:
  %dalloc.addr = alloca ptr, align 8
  %k.addr = alloca i32, align 4
  %x = alloca i32, align 4
  %rv = alloca ptr, align 8
  %len = alloca i32, align 4
  store ptr %dalloc, ptr %dalloc.addr, align 8
  store i32 %k, ptr %k.addr, align 4
  %0 = load i32, ptr %k.addr, align 4
  %cmp = icmp sle i32 %0, 7
  br i1 %cmp, label %land.lhs.true, label %if.else

land.lhs.true:                                    ; preds = %entry
  %1 = load ptr, ptr %dalloc.addr, align 8
  %freelist = getelementptr inbounds %struct.dtoa_alloc, ptr %1, i32 0, i32 3
  %2 = load i32, ptr %k.addr, align 4
  %idxprom = sext i32 %2 to i64
  %arrayidx = getelementptr inbounds [8 x ptr], ptr %freelist, i64 0, i64 %idxprom
  %3 = load ptr, ptr %arrayidx, align 8
  store ptr %3, ptr %rv, align 8
  %tobool = icmp ne ptr %3, null
  br i1 %tobool, label %if.then, label %if.else

if.then:                                          ; preds = %land.lhs.true
  %4 = load ptr, ptr %rv, align 8
  %next = getelementptr inbounds %struct.Bigint, ptr %4, i32 0, i32 0
  %5 = load ptr, ptr %next, align 8
  %6 = load ptr, ptr %dalloc.addr, align 8
  %freelist1 = getelementptr inbounds %struct.dtoa_alloc, ptr %6, i32 0, i32 3
  %7 = load i32, ptr %k.addr, align 4
  %idxprom2 = sext i32 %7 to i64
  %arrayidx3 = getelementptr inbounds [8 x ptr], ptr %freelist1, i64 0, i64 %idxprom2
  store ptr %5, ptr %arrayidx3, align 8
  br label %if.end22

if.else:                                          ; preds = %land.lhs.true, %entry
  %8 = load i32, ptr %k.addr, align 4
  %shl = shl i32 1, %8
  store i32 %shl, ptr %x, align 4
  %9 = load i32, ptr %x, align 4
  %sub = sub nsw i32 %9, 1
  %conv = sext i32 %sub to i64
  %mul = mul i64 %conv, 4
  %add = add i64 32, %mul
  %add4 = add i64 %add, 8
  %sub5 = sub i64 %add4, 1
  %div = udiv i64 %sub5, 8
  %conv6 = trunc i64 %div to i32
  store i32 %conv6, ptr %len, align 4
  %10 = load i32, ptr %k.addr, align 4
  %cmp7 = icmp sle i32 %10, 7
  br i1 %cmp7, label %land.lhs.true9, label %if.else18

land.lhs.true9:                                   ; preds = %if.else
  %11 = load ptr, ptr %dalloc.addr, align 8
  %pmem_next = getelementptr inbounds %struct.dtoa_alloc, ptr %11, i32 0, i32 2
  %12 = load ptr, ptr %pmem_next, align 8
  %13 = load ptr, ptr %dalloc.addr, align 8
  %private_mem = getelementptr inbounds %struct.dtoa_alloc, ptr %13, i32 0, i32 4
  %arraydecay = getelementptr inbounds [1 x double], ptr %private_mem, i64 0, i64 0
  %sub.ptr.lhs.cast = ptrtoint ptr %12 to i64
  %sub.ptr.rhs.cast = ptrtoint ptr %arraydecay to i64
  %sub.ptr.sub = sub i64 %sub.ptr.lhs.cast, %sub.ptr.rhs.cast
  %sub.ptr.div = sdiv exact i64 %sub.ptr.sub, 8
  %14 = load i32, ptr %len, align 4
  %conv10 = zext i32 %14 to i64
  %add11 = add nsw i64 %sub.ptr.div, %conv10
  %15 = load ptr, ptr %dalloc.addr, align 8
  %pmem_len = getelementptr inbounds %struct.dtoa_alloc, ptr %15, i32 0, i32 0
  %16 = load i32, ptr %pmem_len, align 8
  %conv12 = sext i32 %16 to i64
  %cmp13 = icmp sle i64 %add11, %conv12
  br i1 %cmp13, label %if.then15, label %if.else18

if.then15:                                        ; preds = %land.lhs.true9
  %17 = load ptr, ptr %dalloc.addr, align 8
  %pmem_next16 = getelementptr inbounds %struct.dtoa_alloc, ptr %17, i32 0, i32 2
  %18 = load ptr, ptr %pmem_next16, align 8
  store ptr %18, ptr %rv, align 8
  %19 = load i32, ptr %len, align 4
  %20 = load ptr, ptr %dalloc.addr, align 8
  %pmem_next17 = getelementptr inbounds %struct.dtoa_alloc, ptr %20, i32 0, i32 2
  %21 = load ptr, ptr %pmem_next17, align 8
  %idx.ext = zext i32 %19 to i64
  %add.ptr = getelementptr inbounds double, ptr %21, i64 %idx.ext
  store ptr %add.ptr, ptr %pmem_next17, align 8
  br label %if.end

if.else18:                                        ; preds = %land.lhs.true9, %if.else
  %22 = load i32, ptr %len, align 4
  %conv19 = zext i32 %22 to i64
  %mul20 = mul i64 %conv19, 8
  %call = call noalias ptr @malloc(i64 noundef %mul20) #11
  store ptr %call, ptr %rv, align 8
  %23 = load ptr, ptr %dalloc.addr, align 8
  %used_heap = getelementptr inbounds %struct.dtoa_alloc, ptr %23, i32 0, i32 1
  store i32 1, ptr %used_heap, align 4
  br label %if.end

if.end:                                           ; preds = %if.else18, %if.then15
  %24 = load i32, ptr %k.addr, align 4
  %25 = load ptr, ptr %rv, align 8
  %k21 = getelementptr inbounds %struct.Bigint, ptr %25, i32 0, i32 1
  store i32 %24, ptr %k21, align 8
  %26 = load i32, ptr %x, align 4
  %27 = load ptr, ptr %rv, align 8
  %maxwds = getelementptr inbounds %struct.Bigint, ptr %27, i32 0, i32 2
  store i32 %26, ptr %maxwds, align 4
  br label %if.end22

if.end22:                                         ; preds = %if.end, %if.then
  %28 = load ptr, ptr %rv, align 8
  %wds = getelementptr inbounds %struct.Bigint, ptr %28, i32 0, i32 4
  store i32 0, ptr %wds, align 4
  %29 = load ptr, ptr %rv, align 8
  %sign = getelementptr inbounds %struct.Bigint, ptr %29, i32 0, i32 3
  store i32 0, ptr %sign, align 8
  %30 = load ptr, ptr %rv, align 8
  ret ptr %30
}

; Function Attrs: nounwind uwtable
define internal ptr @multadd(ptr noundef %dalloc, ptr noundef %b, i32 noundef %m, i32 noundef %a) #0 {
entry:
  %dalloc.addr = alloca ptr, align 8
  %b.addr = alloca ptr, align 8
  %m.addr = alloca i32, align 4
  %a.addr = alloca i32, align 4
  %i = alloca i32, align 4
  %wds = alloca i32, align 4
  %x = alloca ptr, align 8
  %carry = alloca i64, align 8
  %y = alloca i64, align 8
  %b1 = alloca ptr, align 8
  store ptr %dalloc, ptr %dalloc.addr, align 8
  store ptr %b, ptr %b.addr, align 8
  store i32 %m, ptr %m.addr, align 4
  store i32 %a, ptr %a.addr, align 4
  %0 = load ptr, ptr %b.addr, align 8
  %wds1 = getelementptr inbounds %struct.Bigint, ptr %0, i32 0, i32 4
  %1 = load i32, ptr %wds1, align 4
  store i32 %1, ptr %wds, align 4
  %2 = load ptr, ptr %b.addr, align 8
  %x2 = getelementptr inbounds %struct.Bigint, ptr %2, i32 0, i32 5
  %arraydecay = getelementptr inbounds [1 x i32], ptr %x2, i64 0, i64 0
  store ptr %arraydecay, ptr %x, align 8
  store i32 0, ptr %i, align 4
  %3 = load i32, ptr %a.addr, align 4
  %conv = sext i32 %3 to i64
  store i64 %conv, ptr %carry, align 8
  br label %do.body

do.body:                                          ; preds = %do.cond, %entry
  %4 = load ptr, ptr %x, align 8
  %5 = load i32, ptr %4, align 4
  %conv3 = zext i32 %5 to i64
  %6 = load i32, ptr %m.addr, align 4
  %conv4 = sext i32 %6 to i64
  %mul = mul i64 %conv3, %conv4
  %7 = load i64, ptr %carry, align 8
  %add = add i64 %mul, %7
  store i64 %add, ptr %y, align 8
  %8 = load i64, ptr %y, align 8
  %shr = lshr i64 %8, 32
  store i64 %shr, ptr %carry, align 8
  %9 = load i64, ptr %y, align 8
  %and = and i64 %9, 4294967295
  %conv5 = trunc i64 %and to i32
  %10 = load ptr, ptr %x, align 8
  %incdec.ptr = getelementptr inbounds i32, ptr %10, i32 1
  store ptr %incdec.ptr, ptr %x, align 8
  store i32 %conv5, ptr %10, align 4
  br label %do.cond

do.cond:                                          ; preds = %do.body
  %11 = load i32, ptr %i, align 4
  %inc = add nsw i32 %11, 1
  store i32 %inc, ptr %i, align 4
  %12 = load i32, ptr %wds, align 4
  %cmp = icmp slt i32 %inc, %12
  br i1 %cmp, label %do.body, label %do.end, !llvm.loop !36

do.end:                                           ; preds = %do.cond
  %13 = load i64, ptr %carry, align 8
  %tobool = icmp ne i64 %13, 0
  br i1 %tobool, label %if.then, label %if.end20

if.then:                                          ; preds = %do.end
  %14 = load i32, ptr %wds, align 4
  %15 = load ptr, ptr %b.addr, align 8
  %maxwds = getelementptr inbounds %struct.Bigint, ptr %15, i32 0, i32 2
  %16 = load i32, ptr %maxwds, align 4
  %cmp7 = icmp sge i32 %14, %16
  br i1 %cmp7, label %if.then9, label %if.end

if.then9:                                         ; preds = %if.then
  %17 = load ptr, ptr %dalloc.addr, align 8
  %18 = load ptr, ptr %b.addr, align 8
  %k = getelementptr inbounds %struct.Bigint, ptr %18, i32 0, i32 1
  %19 = load i32, ptr %k, align 8
  %add10 = add nsw i32 %19, 1
  %call = call ptr @Balloc(ptr noundef %17, i32 noundef %add10)
  store ptr %call, ptr %b1, align 8
  %20 = load ptr, ptr %b1, align 8
  %sign = getelementptr inbounds %struct.Bigint, ptr %20, i32 0, i32 3
  %21 = load ptr, ptr %b.addr, align 8
  %sign11 = getelementptr inbounds %struct.Bigint, ptr %21, i32 0, i32 3
  %22 = load ptr, ptr %b.addr, align 8
  %wds12 = getelementptr inbounds %struct.Bigint, ptr %22, i32 0, i32 4
  %23 = load i32, ptr %wds12, align 4
  %conv13 = sext i32 %23 to i64
  %mul14 = mul i64 %conv13, 4
  %add15 = add i64 %mul14, 8
  call void @llvm.memcpy.p0.p0.i64(ptr align 8 %sign, ptr align 8 %sign11, i64 %add15, i1 false)
  %24 = load ptr, ptr %dalloc.addr, align 8
  %25 = load ptr, ptr %b.addr, align 8
  call void @Bfree(ptr noundef %24, ptr noundef %25)
  %26 = load ptr, ptr %b1, align 8
  store ptr %26, ptr %b.addr, align 8
  br label %if.end

if.end:                                           ; preds = %if.then9, %if.then
  %27 = load i64, ptr %carry, align 8
  %conv16 = trunc i64 %27 to i32
  %28 = load ptr, ptr %b.addr, align 8
  %x17 = getelementptr inbounds %struct.Bigint, ptr %28, i32 0, i32 5
  %29 = load i32, ptr %wds, align 4
  %inc18 = add nsw i32 %29, 1
  store i32 %inc18, ptr %wds, align 4
  %idxprom = sext i32 %29 to i64
  %arrayidx = getelementptr inbounds [1 x i32], ptr %x17, i64 0, i64 %idxprom
  store i32 %conv16, ptr %arrayidx, align 4
  %30 = load i32, ptr %wds, align 4
  %31 = load ptr, ptr %b.addr, align 8
  %wds19 = getelementptr inbounds %struct.Bigint, ptr %31, i32 0, i32 4
  store i32 %30, ptr %wds19, align 4
  br label %if.end20

if.end20:                                         ; preds = %if.end, %do.end
  %32 = load ptr, ptr %b.addr, align 8
  ret ptr %32
}