; Function Attrs: nounwind uwtable
define internal fastcc ptr @multadd(ptr noundef %dalloc, ptr noundef %b, i32 noundef %m, i32 noundef range(i32 -176, 80) %a) unnamed_addr #1 {
entry:
  %wds1 = getelementptr inbounds nuw i8, ptr %b, i64 20
  %0 = load i32, ptr %wds1, align 4
  %x2 = getelementptr inbounds nuw i8, ptr %b, i64 24
  %conv = sext i32 %a to i64
  %conv4 = sext i32 %m to i64
  %smax = tail call i32 @llvm.smax.i32(i32 %0, i32 1)
  br label %do.body

do.body:                                          ; preds = %do.body, %entry
  %x.0 = phi ptr [ %x2, %entry ], [ %incdec.ptr, %do.body ]
  %carry.0 = phi i64 [ %conv, %entry ], [ %shr, %do.body ]
  %i.0 = phi i32 [ 0, %entry ], [ %inc, %do.body ]
  %1 = load i32, ptr %x.0, align 4
  %conv3 = zext i32 %1 to i64
  %mul = mul nsw i64 %conv3, %conv4
  %add = add nsw i64 %mul, %carry.0
  %shr = lshr i64 %add, 32
  %conv5 = trunc i64 %add to i32
  %incdec.ptr = getelementptr inbounds nuw i8, ptr %x.0, i64 4
  store i32 %conv5, ptr %x.0, align 4
  %inc = add nuw nsw i32 %i.0, 1
  %exitcond.not = icmp eq i32 %inc, %smax
  br i1 %exitcond.not, label %do.end, label %do.body, !llvm.loop !38

do.end:                                           ; preds = %do.body
  %tobool.not = icmp ult i64 %add, 4294967296
  br i1 %tobool.not, label %if.end20, label %if.then

if.then:                                          ; preds = %do.end
  %maxwds = getelementptr inbounds nuw i8, ptr %b, i64 12
  %2 = load i32, ptr %maxwds, align 4
  %cmp7.not = icmp slt i32 %0, %2
  br i1 %cmp7.not, label %if.end, label %if.then9

if.then9:                                         ; preds = %if.then
  %k = getelementptr inbounds nuw i8, ptr %b, i64 8
  %3 = load i32, ptr %k, align 8
  %add10 = add nsw i32 %3, 1
  %cmp.i = icmp slt i32 %3, 7
  br i1 %cmp.i, label %land.lhs.true.i, label %if.else.i

land.lhs.true.i:                                  ; preds = %if.then9
  %freelist.i = getelementptr inbounds nuw i8, ptr %dalloc, i64 16
  %idxprom.i = sext i32 %add10 to i64
  %arrayidx.i = getelementptr inbounds [8 x ptr], ptr %freelist.i, i64 0, i64 %idxprom.i
  %4 = load ptr, ptr %arrayidx.i, align 8
  %tobool.not.i = icmp eq ptr %4, null
  br i1 %tobool.not.i, label %land.lhs.true9.i, label %if.then.i

if.then.i:                                        ; preds = %land.lhs.true.i
  %5 = load ptr, ptr %4, align 8
  store ptr %5, ptr %arrayidx.i, align 8
  br label %if.then.i20

if.else.i:                                        ; preds = %if.then9
  %shl.i = shl nuw i32 1, %add10
  %sub.i = add nsw i32 %shl.i, -1
  %conv.i = zext nneg i32 %sub.i to i64
  %mul.i = shl nuw nsw i64 %conv.i, 2
  %sub5.i = add nuw nsw i64 %mul.i, 39
  br label %if.else18.i

land.lhs.true9.i:                                 ; preds = %land.lhs.true.i
  %shl22.i = shl nuw nsw i32 1, %add10
  %sub23.i = add nsw i32 %shl22.i, -1
  %conv24.i = zext nneg i32 %sub23.i to i64
  %mul25.i = shl nuw nsw i64 %conv24.i, 2
  %sub526.i = add nuw nsw i64 %mul25.i, 39
  %div21.i = lshr i64 %sub526.i, 3
  %pmem_next.i = getelementptr inbounds nuw i8, ptr %dalloc, i64 8
  %6 = load ptr, ptr %pmem_next.i, align 8
  %private_mem.i = getelementptr inbounds nuw i8, ptr %dalloc, i64 80
  %sub.ptr.lhs.cast.i = ptrtoint ptr %6 to i64
  %sub.ptr.rhs.cast.i = ptrtoint ptr %private_mem.i to i64
  %sub.ptr.sub.i = sub i64 %sub.ptr.lhs.cast.i, %sub.ptr.rhs.cast.i
  %sub.ptr.div.i = ashr exact i64 %sub.ptr.sub.i, 3
  %add11.i = add nsw i64 %sub.ptr.div.i, %div21.i
  %7 = load i32, ptr %dalloc, align 8
  %conv12.i = sext i32 %7 to i64
  %cmp13.not.i = icmp sgt i64 %add11.i, %conv12.i
  br i1 %cmp13.not.i, label %if.else18.i, label %if.then15.i

if.then15.i:                                      ; preds = %land.lhs.true9.i
  %add.ptr.i = getelementptr inbounds nuw double, ptr %6, i64 %div21.i
  store ptr %add.ptr.i, ptr %pmem_next.i, align 8
  br label %if.end.i

if.else18.i:                                      ; preds = %land.lhs.true9.i, %if.else.i
  %sub531.i = phi i64 [ %sub526.i, %land.lhs.true9.i ], [ %sub5.i, %if.else.i ]
  %shl28.i = phi i32 [ %shl22.i, %land.lhs.true9.i ], [ %shl.i, %if.else.i ]
  %mul20.i = and i64 %sub531.i, 34359738360
  %call.i = tail call noalias ptr @malloc(i64 noundef %mul20.i) #19
  %used_heap.i = getelementptr inbounds nuw i8, ptr %dalloc, i64 4
  store i32 1, ptr %used_heap.i, align 4
  br label %if.end.i

if.end.i:                                         ; preds = %if.else18.i, %if.then15.i
  %shl27.i = phi i32 [ %shl22.i, %if.then15.i ], [ %shl28.i, %if.else18.i ]
  %rv.1.i = phi ptr [ %6, %if.then15.i ], [ %call.i, %if.else18.i ]
  %k21.i = getelementptr inbounds nuw i8, ptr %rv.1.i, i64 8
  store i32 %add10, ptr %k21.i, align 8
  %maxwds.i = getelementptr inbounds nuw i8, ptr %rv.1.i, i64 12
  store i32 %shl27.i, ptr %maxwds.i, align 4
  br label %if.then.i20

if.then.i20:                                      ; preds = %if.end.i, %if.then.i
  %rv.0.i = phi ptr [ %4, %if.then.i ], [ %rv.1.i, %if.end.i ]
  %wds.i = getelementptr inbounds nuw i8, ptr %rv.0.i, i64 20
  store i32 0, ptr %wds.i, align 4
  %sign.i = getelementptr inbounds nuw i8, ptr %rv.0.i, i64 16
  store i32 0, ptr %sign.i, align 8
  %sign11 = getelementptr inbounds nuw i8, ptr %b, i64 16
  %8 = load i32, ptr %wds1, align 4
  %conv13 = sext i32 %8 to i64
  %mul14 = shl nsw i64 %conv13, 2
  %add15 = add nsw i64 %mul14, 8
  tail call void @llvm.memcpy.p0.p0.i64(ptr nonnull align 8 %sign.i, ptr nonnull align 8 %sign11, i64 %add15, i1 false)
  %9 = load i32, ptr %k, align 8
  %cmp.i21 = icmp sgt i32 %9, 7
  br i1 %cmp.i21, label %if.then1.i, label %if.else.i22

if.then1.i:                                       ; preds = %if.then.i20
  tail call void @free(ptr noundef nonnull %b) #17
  br label %if.end

if.else.i22:                                      ; preds = %if.then.i20
  %freelist.i23 = getelementptr inbounds nuw i8, ptr %dalloc, i64 16
  %idxprom.i24 = sext i32 %9 to i64
  %arrayidx.i25 = getelementptr inbounds [8 x ptr], ptr %freelist.i23, i64 0, i64 %idxprom.i24
  %10 = load ptr, ptr %arrayidx.i25, align 8
  store ptr %10, ptr %b, align 8
  store ptr %b, ptr %arrayidx.i25, align 8
  br label %if.end

if.end:                                           ; preds = %if.else.i22, %if.then1.i, %if.then
  %b.addr.1 = phi ptr [ %b, %if.then ], [ %rv.0.i, %if.then1.i ], [ %rv.0.i, %if.else.i22 ]
  %conv16 = trunc nuw i64 %shr to i32
  %x17 = getelementptr inbounds nuw i8, ptr %b.addr.1, i64 24
  %inc18 = add nsw i32 %0, 1
  %idxprom = sext i32 %0 to i64
  %arrayidx = getelementptr inbounds [1 x i32], ptr %x17, i64 0, i64 %idxprom
  store i32 %conv16, ptr %arrayidx, align 4
  %wds19 = getelementptr inbounds nuw i8, ptr %b.addr.1, i64 20
  store i32 %inc18, ptr %wds19, align 4
  br label %if.end20

if.end20:                                         ; preds = %if.end, %do.end
  %b.addr.0 = phi ptr [ %b.addr.1, %if.end ], [ %b, %do.end ]
  ret ptr %b.addr.0
}